; Function Attrs: mustprogress uwtable
define noundef i32 @uldn_getContext_77(ptr noundef %0, i32 noundef %1, ptr noundef readonly captures(none) %2) local_unnamed_addr #1 {
  %4 = load i32, ptr %2, align 4, !tbaa !13
  %5 = icmp slt i32 %4, 1
  br i1 %5, label %6, label %11

6:                                                ; preds = %3
  %7 = load ptr, ptr %0, align 8, !tbaa !21
  %8 = getelementptr inbounds nuw i8, ptr %7, i64 40
  %9 = load ptr, ptr %8, align 8
  %10 = tail call noundef i32 %9(ptr noundef nonnull align 8 dereferenceable(8) %0, i32 noundef %1)
  br label %11

11:                                               ; preds = %3, %6
  %.0 = phi i32 [ %10, %6 ], [ 0, %3 ]
  ret i32 %.0
}